target datalayout = "e-m:e-p270:32:32-p271:32:32-p272:64:64-i64:64-i128:128-f80:128-n8:16:32:64-S128"
target triple = "x86_64-pc-linux-gnu"

%"class.std::shared_ptr" = type { %"class.std::__shared_ptr" }
%"class.std::__shared_ptr" = type { ptr, %"class.std::__shared_count" }
%"class.std::__shared_count" = type { ptr }
%"class.open_spiel::phantom_go::PhantomGoState" = type <{ %"class.open_spiel::State.base", [4 x i8], %"class.open_spiel::phantom_go::PhantomGoBoard", %"class.std::unordered_set", float, i32, i32, i8, i8, [2 x i8] }>
%"class.open_spiel::State.base" = type <{ ptr, %"class.std::shared_ptr", i32, i32, %"class.std::vector", i32 }>
%"class.std::vector" = type { %"struct.std::_Vector_base" }
%"struct.std::_Vector_base" = type { %"struct.std::_Vector_base<open_spiel::State::PlayerAction, std::allocator<open_spiel::State::PlayerAction>>::_Vector_impl" }
%"struct.std::_Vector_base<open_spiel::State::PlayerAction, std::allocator<open_spiel::State::PlayerAction>>::_Vector_impl" = type { %"struct.std::_Vector_base<open_spiel::State::PlayerAction, std::allocator<open_spiel::State::PlayerAction>>::_Vector_impl_data" }
%"struct.std::_Vector_base<open_spiel::State::PlayerAction, std::allocator<open_spiel::State::PlayerAction>>::_Vector_impl_data" = type { ptr, ptr, ptr }
%"class.open_spiel::phantom_go::PhantomGoBoard" = type <{ %"struct.std::array", [2 x i8], %"struct.std::array.10", i8, i8, [2 x i8], i32, %"struct.std::array.11", [2 x i8], %"struct.std::array.12", i64, %"struct.std::array.13", i32, i32, i16, [6 x i8] }>
%"struct.std::array" = type { [2 x %"struct.std::array.9"] }
%"struct.std::array.9" = type { [361 x i8] }
%"struct.std::array.10" = type { [2 x i32] }
%"struct.std::array.11" = type { [441 x %"struct.open_spiel::phantom_go::PhantomGoBoard::Vertex"] }
%"struct.open_spiel::phantom_go::PhantomGoBoard::Vertex" = type { i16, i16, i8 }
%"struct.std::array.12" = type { [441 x %"struct.open_spiel::phantom_go::PhantomGoBoard::Chain"] }
%"struct.open_spiel::phantom_go::PhantomGoBoard::Chain" = type { i32, i16, i16, i16 }
%"struct.std::array.13" = type { [4 x i16] }
%"class.std::unordered_set" = type { %"class.std::_Hashtable" }
%"class.std::_Hashtable" = type { ptr, i64, %"struct.std::__detail::_Hash_node_base", i64, %"struct.std::__detail::_Prime_rehash_policy", ptr }
%"struct.std::__detail::_Hash_node_base" = type { ptr }
%"struct.std::__detail::_Prime_rehash_policy" = type { float, i64 }
%"class.open_spiel::State" = type <{ ptr, %"class.std::shared_ptr", i32, i32, %"class.std::vector", i32, [4 x i8] }>
%"struct.open_spiel::State::PlayerAction" = type { i32, i64 }

; Function Attrs: mustprogress nounwind uwtable
define linkonce_odr noundef i32 @_ZNK10open_spiel10phantom_go14PhantomGoBoard11pass_actionEv(ptr noundef nonnull align 8 dereferenceable(8706) %0) #5 comdat align 2 {
  %2 = alloca ptr, align 8
  store ptr %0, ptr %2, align 8
  %3 = load ptr, ptr %2, align 8
  %4 = getelementptr inbounds nuw %"class.open_spiel::phantom_go::PhantomGoBoard", ptr %3, i32 0, i32 13
  %5 = load i32, ptr %4, align 4
  ret i32 %5
}

; Function Attrs: mustprogress nounwind uwtable
define linkonce_odr noundef nonnull align 8 dereferenceable(16) ptr @_ZNKSt6vectorIN10open_spiel5State12PlayerActionESaIS2_EEixEm(ptr noundef nonnull align 8 dereferenceable(24) %0, i64 noundef %1) #5 comdat align 2 {
  %3 = alloca ptr, align 8
  %4 = alloca i64, align 8
  store ptr %0, ptr %3, align 8
  store i64 %1, ptr %4, align 8
  %5 = load ptr, ptr %3, align 8
  %6 = getelementptr inbounds nuw %"struct.std::_Vector_base", ptr %5, i32 0, i32 0
  %7 = getelementptr inbounds nuw %"struct.std::_Vector_base<open_spiel::State::PlayerAction, std::allocator<open_spiel::State::PlayerAction>>::_Vector_impl_data", ptr %6, i32 0, i32 0
  %8 = load ptr, ptr %7, align 8
  %9 = load i64, ptr %4, align 8
  %10 = getelementptr inbounds %"struct.open_spiel::State::PlayerAction", ptr %8, i64 %9
  ret ptr %10
}

; Function Attrs: mustprogress nounwind uwtable
define linkonce_odr noundef i64 @_ZNKSt6vectorIN10open_spiel5State12PlayerActionESaIS2_EE4sizeEv(ptr noundef nonnull align 8 dereferenceable(24) %0) #5 comdat align 2 {
  %2 = alloca ptr, align 8
  store ptr %0, ptr %2, align 8
  %3 = load ptr, ptr %2, align 8
  %4 = getelementptr inbounds nuw %"struct.std::_Vector_base", ptr %3, i32 0, i32 0
  %5 = getelementptr inbounds nuw %"struct.std::_Vector_base<open_spiel::State::PlayerAction, std::allocator<open_spiel::State::PlayerAction>>::_Vector_impl_data", ptr %4, i32 0, i32 1
  %6 = load ptr, ptr %5, align 8
  %7 = getelementptr inbounds nuw %"struct.std::_Vector_base", ptr %3, i32 0, i32 0
  %8 = getelementptr inbounds nuw %"struct.std::_Vector_base<open_spiel::State::PlayerAction, std::allocator<open_spiel::State::PlayerAction>>::_Vector_impl_data", ptr %7, i32 0, i32 0
  %9 = load ptr, ptr %8, align 8
  %10 = ptrtoint ptr %6 to i64
  %11 = ptrtoint ptr %9 to i64
  %12 = sub i64 %10, %11
  %13 = sdiv exact i64 %12, 16
  ret i64 %13
}

; Function Attrs: mustprogress uwtable
define noundef zeroext i1 @_ZNK10open_spiel10phantom_go14PhantomGoState10IsTerminalEv(ptr noundef nonnull align 8 dereferenceable(8846) %0) unnamed_addr #4 align 2 {
  %2 = alloca i1, align 1
  %3 = alloca ptr, align 8
  store ptr %0, ptr %3, align 8
  %4 = load ptr, ptr %3, align 8
  %5 = getelementptr inbounds nuw %"class.open_spiel::State", ptr %4, i32 0, i32 4
  %6 = call noundef i64 @_ZNKSt6vectorIN10open_spiel5State12PlayerActionESaIS2_EE4sizeEv(ptr noundef nonnull align 8 dereferenceable(24) %5) #3
  %7 = icmp ult i64 %6, 2
  br i1 %7, label %8, label %9

8:                                                ; preds = %1
  store i1 false, ptr %2, align 1
  br label %48

9:                                                ; preds = %1
  %10 = getelementptr inbounds nuw %"class.open_spiel::State", ptr %4, i32 0, i32 4
  %11 = call noundef i64 @_ZNKSt6vectorIN10open_spiel5State12PlayerActionESaIS2_EE4sizeEv(ptr noundef nonnull align 8 dereferenceable(24) %10) #3
  %12 = getelementptr inbounds nuw %"class.open_spiel::phantom_go::PhantomGoState", ptr %4, i32 0, i32 6
  %13 = load i32, ptr %12, align 8
  %14 = sext i32 %13 to i64
  %15 = icmp uge i64 %11, %14
  br i1 %15, label %46, label %16

16:                                               ; preds = %9
  %17 = getelementptr inbounds nuw %"class.open_spiel::phantom_go::PhantomGoState", ptr %4, i32 0, i32 8
  %18 = load i8, ptr %17, align 1
  %19 = trunc i8 %18 to i1
  br i1 %19, label %46, label %20

20:                                               ; preds = %16
  %21 = getelementptr inbounds nuw %"class.open_spiel::State", ptr %4, i32 0, i32 4
  %22 = getelementptr inbounds nuw %"class.open_spiel::State", ptr %4, i32 0, i32 4
  %23 = call noundef i64 @_ZNKSt6vectorIN10open_spiel5State12PlayerActionESaIS2_EE4sizeEv(ptr noundef nonnull align 8 dereferenceable(24) %22) #3
  %24 = sub i64 %23, 1
  %25 = call noundef nonnull align 8 dereferenceable(16) ptr @_ZNKSt6vectorIN10open_spiel5State12PlayerActionESaIS2_EEixEm(ptr noundef nonnull align 8 dereferenceable(24) %21, i64 noundef %24) #3
  %26 = getelementptr inbounds nuw %"struct.open_spiel::State::PlayerAction", ptr %25, i32 0, i32 1
  %27 = load i64, ptr %26, align 8
  %28 = getelementptr inbounds nuw %"class.open_spiel::phantom_go::PhantomGoState", ptr %4, i32 0, i32 2
  %29 = call noundef i32 @_ZNK10open_spiel10phantom_go14PhantomGoBoard11pass_actionEv(ptr noundef nonnull align 8 dereferenceable(8706) %28)
  %30 = sext i32 %29 to i64
  %31 = icmp eq i64 %27, %30
  br i1 %31, label %32, label %44

32:                                               ; preds = %20
  %33 = getelementptr inbounds nuw %"class.open_spiel::State", ptr %4, i32 0, i32 4
  %34 = getelementptr inbounds nuw %"class.open_spiel::State", ptr %4, i32 0, i32 4
  %35 = call noundef i64 @_ZNKSt6vectorIN10open_spiel5State12PlayerActionESaIS2_EE4sizeEv(ptr noundef nonnull align 8 dereferenceable(24) %34) #3
  %36 = sub i64 %35, 2
  %37 = call noundef nonnull align 8 dereferenceable(16) ptr @_ZNKSt6vectorIN10open_spiel5State12PlayerActionESaIS2_EEixEm(ptr noundef nonnull align 8 dereferenceable(24) %33, i64 noundef %36) #3
  %38 = getelementptr inbounds nuw %"struct.open_spiel::State::PlayerAction", ptr %37, i32 0, i32 1
  %39 = load i64, ptr %38, align 8
  %40 = getelementptr inbounds nuw %"class.open_spiel::phantom_go::PhantomGoState", ptr %4, i32 0, i32 2
  %41 = call noundef i32 @_ZNK10open_spiel10phantom_go14PhantomGoBoard11pass_actionEv(ptr noundef nonnull align 8 dereferenceable(8706) %40)
  %42 = sext i32 %41 to i64
  %43 = icmp eq i64 %39, %42
  br label %44

44:                                               ; preds = %32, %20
  %45 = phi i1 [ false, %20 ], [ %43, %32 ]
  br label %46

46:                                               ; preds = %44, %16, %9
  %47 = phi i1 [ true, %16 ], [ true, %9 ], [ %45, %44 ]
  store i1 %47, ptr %2, align 1
  br label %48

48:                                               ; preds = %46, %8
  %49 = load i1, ptr %2, align 1
  ret i1 %49
}